; Function Attrs: mustprogress nounwind uwtable
define hidden void @_ZN21VM_ShenandoahInitMark4doitEv(ptr nocapture noundef nonnull readonly align 8 dereferenceable(32) %0) unnamed_addr #1 align 2 {
  %2 = alloca %class.ShenandoahGCPauseMark, align 8
  %3 = getelementptr inbounds i8, ptr %0, i64 16
  %4 = load i32, ptr %3, align 8
  call void @_ZN21ShenandoahGCPauseMarkC1EjPKcN11SvcGCMarker11reason_typeE(ptr noundef nonnull align 8 dereferenceable(48) %2, i32 noundef %4, ptr noundef nonnull @.str, i32 noundef 2) #5
  %5 = getelementptr inbounds i8, ptr %0, i64 24
  %6 = load ptr, ptr %5, align 8
  call void @_ZN22ShenandoahConcurrentGC15entry_init_markEv(ptr noundef nonnull align 8 dereferenceable(21) %6) #5
  %7 = load ptr, ptr @_ZN8Universe14_collectedHeapE, align 8
  call void @_ZN14ShenandoahHeap34propagate_gc_state_to_java_threadsEv(ptr noundef nonnull align 8 dereferenceable(2657) %7) #5
  %8 = getelementptr inbounds i8, ptr %2, i64 16
  call void @_ZN23TraceMemoryManagerStatsD1Ev(ptr noundef nonnull align 8 dereferenceable(32) %8) #5
  %9 = getelementptr inbounds i8, ptr %2, i64 14
  call void @_ZN17IsSTWGCActiveMarkD1Ev(ptr noundef nonnull align 1 dereferenceable(1) %9) #5
  call void @_ZN15VM_GC_Operation13notify_gc_endEv() #5
  %10 = getelementptr inbounds i8, ptr %2, i64 13
  call void @_ZN13JvmtiGCMarkerD1Ev(ptr noundef nonnull align 1 dereferenceable(1) %10) #5
  %11 = getelementptr inbounds i8, ptr %2, i64 8
  call void @_ZN8GCIdMarkD1Ev(ptr noundef nonnull align 4 dereferenceable(4) %11) #5
  ret void
}